(dp1
S'output'
p2
S"<type 'exceptions.AttributeError'> 'Set' object has no attribute 'elect'"
p3
sS'layer'
p4
S'C:\\Users\\Ebenezer Appiah\\Desktop\\software\\windows\\web2py\\applications\\rentapp\\controllers/default.py'
p5
sS'code'
p6
S'<code object <module> at 0999BBA8, file "C:\\Users\\Ebenezer Appiah\\Desktop\\software\\windows\\web2py\\applications\\rentapp\\controllers/default.py", line 1>'
p7
sS'snapshot'
p8
(dp9
sS'traceback'
p10
S'Traceback (most recent call last):\n  File "C:\\Users\\Ebenezer Appiah\\Desktop\\software\\windows\\web2py\\gluon\\restricted.py", line 219, in restricted\n    exec(ccode, environment)\n  File "C:\\Users\\Ebenezer Appiah\\Desktop\\software\\windows\\web2py\\applications\\rentapp\\controllers/default.py", line 48, in <module>\n  File "C:\\Users\\Ebenezer Appiah\\Desktop\\software\\windows\\web2py\\gluon\\globals.py", line 419, in <lambda>\n    self._caller = lambda f: f()\n  File "C:\\Users\\Ebenezer Appiah\\Desktop\\software\\windows\\web2py\\applications\\rentapp\\controllers/default.py", line 42, in searchresult\n    uploads=db(title_query).elect(orderby=db.uploads.db_location)\nAttributeError: \'Set\' object has no attribute \'elect\'\n'
p11
s.